target datalayout = "e-m:e-p270:32:32-p271:32:32-p272:64:64-i64:64-i128:128-f80:128-n8:16:32:64-S128"
target triple = "x86_64-pc-linux-gnu"

%struct.AVRational = type { i32, i32 }
%struct.AVChannelLayout = type { i32, i32, %union.anon.0, ptr }
%union.anon.0 = type { i64 }
%struct.AVFrame = type { [8 x ptr], [8 x i32], ptr, i32, i32, i32, i32, i32, %struct.AVRational, i64, i64, %struct.AVRational, i32, ptr, i32, i32, [8 x ptr], ptr, i32, ptr, i32, i32, i32, i32, i32, i32, i32, i64, ptr, i32, ptr, ptr, i64, i64, i64, i64, ptr, %struct.AVChannelLayout, i64 }

; Function Attrs: nounwind uwtable
define internal i32 @xv_write_frame(ptr noundef %0, i32 noundef %1, ptr noundef %2, i32 noundef %3) #0 {
  %5 = alloca i32, align 4
  %6 = alloca ptr, align 8
  %7 = alloca i32, align 4
  %8 = alloca ptr, align 8
  %9 = alloca i32, align 4
  store ptr %0, ptr %6, align 8, !tbaa !4
  store i32 %1, ptr %7, align 4, !tbaa !27
  store ptr %2, ptr %8, align 8, !tbaa !107
  store i32 %3, ptr %9, align 4, !tbaa !27
  %10 = load i32, ptr %9, align 4, !tbaa !27
  %11 = and i32 %10, 1
  %12 = icmp ne i32 %11, 0
  br i1 %12, label %13, label %14

13:                                               ; preds = %4
  store i32 0, ptr %5, align 4
  br label %25

14:                                               ; preds = %4
  %15 = load ptr, ptr %6, align 8, !tbaa !4
  %16 = load ptr, ptr %8, align 8, !tbaa !107
  %17 = load ptr, ptr %16, align 8, !tbaa !104
  %18 = getelementptr inbounds nuw %struct.AVFrame, ptr %17, i32 0, i32 0
  %19 = getelementptr inbounds [8 x ptr], ptr %18, i64 0, i64 0
  %20 = load ptr, ptr %8, align 8, !tbaa !107
  %21 = load ptr, ptr %20, align 8, !tbaa !104
  %22 = getelementptr inbounds nuw %struct.AVFrame, ptr %21, i32 0, i32 1
  %23 = getelementptr inbounds [8 x i32], ptr %22, i64 0, i64 0
  %24 = call i32 @write_picture(ptr noundef %15, ptr noundef %19, ptr noundef %23)
  store i32 %24, ptr %5, align 4
  br label %25

25:                                               ; preds = %14, %13
  %26 = load i32, ptr %5, align 4
  ret i32 %26
}