; Function Attrs: nounwind uwtable
define internal range(i32 -542398533, 1) i32 @xv_write_frame(ptr noundef %0, i32 %1, ptr noundef readonly captures(none) %2, i32 noundef %3) #0 {
  %5 = and i32 %3, 1
  %.not = icmp eq i32 %5, 0
  br i1 %.not, label %6, label %10

6:                                                ; preds = %4
  %7 = load ptr, ptr %2, align 8, !tbaa !100
  %8 = getelementptr inbounds nuw i8, ptr %7, i64 64
  %9 = tail call fastcc i32 @write_picture(ptr noundef %0, ptr noundef %7, ptr noundef nonnull %8)
  br label %10

10:                                               ; preds = %4, %6
  %.0 = phi i32 [ %9, %6 ], [ 0, %4 ]
  ret i32 %.0
}